os.(*File).close STEXT dupok nosplit size=26 args=0x18 locals=0x0
	0x0000 00000 (<autogenerated>:1)	TEXT	os.(*File).close(SB), DUPOK|NOSPLIT|ABIInternal, $0-24
	0x0000 00000 (<autogenerated>:1)	FUNCDATA	$0, gclocals·e6397a44f8e1b6e77d0f200b4fba5269(SB)
	0x0000 00000 (<autogenerated>:1)	FUNCDATA	$1, gclocals·69c1753bd5f81501d95132d08af04464(SB)
	0x0000 00000 (<autogenerated>:1)	FUNCDATA	$2, gclocals·9fb7f0986f647f17cb53dda1484e0f7a(SB)
	0x0000 00000 (<autogenerated>:1)	PCDATA	$0, $1
	0x0000 00000 (<autogenerated>:1)	PCDATA	$1, $1
	0x0000 00000 (<autogenerated>:1)	MOVQ	""..this+8(SP), AX
	0x0005 00005 (<autogenerated>:1)	MOVQ	(AX), AX
	0x0008 00008 (<autogenerated>:1)	PCDATA	$0, $0
	0x0008 00008 (<autogenerated>:1)	PCDATA	$1, $0
	0x0008 00008 (<autogenerated>:1)	MOVQ	AX, ""..this+8(SP)
	0x000d 00013 (<autogenerated>:1)	XORPS	X0, X0
	0x0010 00016 (<autogenerated>:1)	MOVUPS	X0, "".~r0+16(SP)
	0x0015 00021 (<autogenerated>:1)	JMP	os.(*file).close(SB)
	0x0000 48 8b 44 24 08 48 8b 00 48 89 44 24 08 0f 57 c0  H.D$.H..H.D$..W.
	0x0010 0f 11 44 24 10 e9 00 00 00 00                    ..D$......
	rel 22+4 t=8 os.(*file).close+0
"".main STEXT size=504 args=0x0 locals=0x1d8
	0x0000 00000 (test2.go:5)	TEXT	"".main(SB), ABIInternal, $472-0
	0x0000 00000 (test2.go:5)	MOVQ	(TLS), CX
	0x0009 00009 (test2.go:5)	LEAQ	-344(SP), AX
	0x0011 00017 (test2.go:5)	CMPQ	AX, 16(CX)
	0x0015 00021 (test2.go:5)	JLS	494
	0x001b 00027 (test2.go:5)	SUBQ	$472, SP
	0x0022 00034 (test2.go:5)	MOVQ	BP, 464(SP)
	0x002a 00042 (test2.go:5)	LEAQ	464(SP), BP
	0x0032 00050 (test2.go:5)	FUNCDATA	$0, gclocals·0ce64bbc7cfa5ef04d41c861de81a3d7(SB)
	0x0032 00050 (test2.go:5)	FUNCDATA	$1, gclocals·35bdce1891330e0afa9c706d10572e21(SB)
	0x0032 00050 (test2.go:5)	FUNCDATA	$2, gclocals·75dac9a2768be6c74521bdfea8217eaf(SB)
	0x0032 00050 (test2.go:5)	FUNCDATA	$3, "".main.stkobj(SB)
	0x0032 00050 (test2.go:6)	PCDATA	$0, $0
	0x0032 00050 (test2.go:6)	PCDATA	$1, $1
	0x0032 00050 (test2.go:6)	XORPS	X0, X0
	0x0035 00053 (test2.go:6)	MOVUPS	X0, ""..autotmp_14+112(SP)
	0x003a 00058 (test2.go:6)	MOVUPS	X0, ""..autotmp_14+128(SP)
	0x0042 00066 (test2.go:6)	MOVUPS	X0, ""..autotmp_14+144(SP)
	0x004a 00074 (test2.go:6)	PCDATA	$0, $1
	0x004a 00074 (test2.go:6)	PCDATA	$1, $2
	0x004a 00074 (test2.go:6)	LEAQ	""..autotmp_15+256(SP), DI
	0x0052 00082 (test2.go:6)	PCDATA	$0, $0
	0x0052 00082 (test2.go:6)	LEAQ	-48(DI), DI
	0x0056 00086 (test2.go:6)	DUFFZERO	$239
	0x0069 00105 (test2.go:6)	PCDATA	$0, $2
	0x0069 00105 (test2.go:6)	PCDATA	$1, $1
	0x0069 00105 (test2.go:6)	LEAQ	""..autotmp_15+256(SP), AX
	0x0071 00113 (test2.go:6)	PCDATA	$0, $0
	0x0071 00113 (test2.go:6)	MOVQ	AX, ""..autotmp_14+128(SP)
	0x0079 00121 (test2.go:6)	CALL	runtime.fastrand(SB)
	0x007e 00126 (test2.go:6)	MOVL	(SP), AX
	0x0081 00129 (test2.go:6)	MOVL	AX, ""..autotmp_14+124(SP)
	0x0085 00133 (test2.go:7)	PCDATA	$0, $2
	0x0085 00133 (test2.go:7)	LEAQ	type.map[string]int(SB), AX
	0x008c 00140 (test2.go:7)	PCDATA	$0, $0
	0x008c 00140 (test2.go:7)	MOVQ	AX, (SP)
	0x0090 00144 (test2.go:7)	PCDATA	$0, $3
	0x0090 00144 (test2.go:7)	LEAQ	""..autotmp_14+112(SP), CX
	0x0095 00149 (test2.go:7)	PCDATA	$0, $0
	0x0095 00149 (test2.go:7)	MOVQ	CX, 8(SP)
	0x009a 00154 (test2.go:7)	PCDATA	$0, $4
	0x009a 00154 (test2.go:7)	LEAQ	go.string."qcrao"(SB), DX
	0x00a1 00161 (test2.go:7)	PCDATA	$0, $0
	0x00a1 00161 (test2.go:7)	MOVQ	DX, 16(SP)
	0x00a6 00166 (test2.go:7)	MOVQ	$5, 24(SP)
	0x00af 00175 (test2.go:7)	CALL	runtime.mapassign_faststr(SB)
	0x00b4 00180 (test2.go:7)	PCDATA	$0, $2
	0x00b4 00180 (test2.go:7)	MOVQ	32(SP), AX
	0x00b9 00185 (test2.go:7)	PCDATA	$0, $0
	0x00b9 00185 (test2.go:7)	MOVQ	$18, (AX)
	0x00c0 00192 (test2.go:9)	PCDATA	$0, $1
	0x00c0 00192 (test2.go:9)	PCDATA	$1, $3
	0x00c0 00192 (test2.go:9)	LEAQ	""..autotmp_11+160(SP), DI
	0x00c8 00200 (test2.go:9)	XORPS	X0, X0
	0x00cb 00203 (test2.go:9)	PCDATA	$0, $0
	0x00cb 00203 (test2.go:9)	LEAQ	-32(DI), DI
	0x00cf 00207 (test2.go:9)	DUFFZERO	$273
	0x00e2 00226 (test2.go:9)	PCDATA	$0, $2
	0x00e2 00226 (test2.go:9)	LEAQ	type.map[string]int(SB), AX
	0x00e9 00233 (test2.go:9)	PCDATA	$0, $0
	0x00e9 00233 (test2.go:9)	MOVQ	AX, (SP)
	0x00ed 00237 (test2.go:9)	PCDATA	$0, $2
	0x00ed 00237 (test2.go:9)	PCDATA	$1, $4
	0x00ed 00237 (test2.go:9)	LEAQ	""..autotmp_14+112(SP), AX
	0x00f2 00242 (test2.go:9)	PCDATA	$0, $0
	0x00f2 00242 (test2.go:9)	MOVQ	AX, 8(SP)
	0x00f7 00247 (test2.go:9)	PCDATA	$0, $2
	0x00f7 00247 (test2.go:9)	LEAQ	""..autotmp_11+160(SP), AX
	0x00ff 00255 (test2.go:9)	PCDATA	$0, $0
	0x00ff 00255 (test2.go:9)	MOVQ	AX, 16(SP)
	0x0104 00260 (test2.go:9)	CALL	runtime.mapiterinit(SB)
	0x0109 00265 (test2.go:9)	JMP	461
	0x010e 00270 (test2.go:9)	PCDATA	$0, $5
	0x010e 00270 (test2.go:9)	MOVQ	""..autotmp_11+168(SP), CX
	0x0116 00278 (test2.go:9)	MOVQ	8(AX), DX
	0x011a 00282 (test2.go:9)	PCDATA	$0, $2
	0x011a 00282 (test2.go:9)	MOVQ	(CX), CX
	0x011d 00285 (test2.go:9)	MOVQ	CX, "".age+64(SP)
	0x0122 00290 (test2.go:9)	MOVQ	(AX), AX
	0x0125 00293 (test2.go:10)	PCDATA	$0, $0
	0x0125 00293 (test2.go:10)	MOVQ	AX, (SP)
	0x0129 00297 (test2.go:10)	MOVQ	DX, 8(SP)
	0x012e 00302 (test2.go:10)	CALL	runtime.convTstring(SB)
	0x0133 00307 (test2.go:10)	PCDATA	$0, $2
	0x0133 00307 (test2.go:10)	MOVQ	16(SP), AX
	0x0138 00312 (test2.go:10)	PCDATA	$0, $0
	0x0138 00312 (test2.go:10)	PCDATA	$1, $5
	0x0138 00312 (test2.go:10)	MOVQ	AX, ""..autotmp_35+72(SP)
	0x013d 00317 (test2.go:10)	MOVQ	"".age+64(SP), CX
	0x0142 00322 (test2.go:10)	MOVQ	CX, (SP)
	0x0146 00326 (test2.go:10)	CALL	runtime.convT64(SB)
	0x014b 00331 (test2.go:10)	PCDATA	$0, $2
	0x014b 00331 (test2.go:10)	MOVQ	8(SP), AX
	0x0150 00336 (test2.go:10)	PCDATA	$1, $6
	0x0150 00336 (test2.go:10)	XORPS	X0, X0
	0x0153 00339 (test2.go:10)	MOVUPS	X0, ""..autotmp_25+80(SP)
	0x0158 00344 (test2.go:10)	MOVUPS	X0, ""..autotmp_25+96(SP)
	0x015d 00349 (test2.go:10)	PCDATA	$0, $5
	0x015d 00349 (test2.go:10)	LEAQ	type.string(SB), CX
	0x0164 00356 (test2.go:10)	PCDATA	$0, $2
	0x0164 00356 (test2.go:10)	MOVQ	CX, ""..autotmp_25+80(SP)
	0x0169 00361 (test2.go:10)	PCDATA	$0, $6
	0x0169 00361 (test2.go:10)	PCDATA	$1, $7
	0x0169 00361 (test2.go:10)	MOVQ	""..autotmp_35+72(SP), DX
	0x016e 00366 (test2.go:10)	PCDATA	$0, $2
	0x016e 00366 (test2.go:10)	MOVQ	DX, ""..autotmp_25+88(SP)
	0x0173 00371 (test2.go:10)	PCDATA	$0, $6
	0x0173 00371 (test2.go:10)	LEAQ	type.int(SB), DX
	0x017a 00378 (test2.go:10)	PCDATA	$0, $2
	0x017a 00378 (test2.go:10)	MOVQ	DX, ""..autotmp_25+96(SP)
	0x017f 00383 (test2.go:10)	PCDATA	$0, $0
	0x017f 00383 (test2.go:10)	MOVQ	AX, ""..autotmp_25+104(SP)
	0x0184 00388 (<unknown line number>)	NOP
	0x0184 00388 ($GOROOT/src/fmt/print.go:274)	PCDATA	$0, $2
	0x0184 00388 ($GOROOT/src/fmt/print.go:274)	MOVQ	os.Stdout(SB), AX
	0x018b 00395 ($GOROOT/src/fmt/print.go:274)	PCDATA	$0, $7
	0x018b 00395 ($GOROOT/src/fmt/print.go:274)	LEAQ	go.itab.*os.File,io.Writer(SB), BX
	0x0192 00402 ($GOROOT/src/fmt/print.go:274)	PCDATA	$0, $2
	0x0192 00402 ($GOROOT/src/fmt/print.go:274)	MOVQ	BX, (SP)
	0x0196 00406 ($GOROOT/src/fmt/print.go:274)	PCDATA	$0, $0
	0x0196 00406 ($GOROOT/src/fmt/print.go:274)	MOVQ	AX, 8(SP)
	0x019b 00411 ($GOROOT/src/fmt/print.go:274)	PCDATA	$0, $2
	0x019b 00411 ($GOROOT/src/fmt/print.go:274)	PCDATA	$1, $4
	0x019b 00411 ($GOROOT/src/fmt/print.go:274)	LEAQ	""..autotmp_25+80(SP), AX
	0x01a0 00416 ($GOROOT/src/fmt/print.go:274)	PCDATA	$0, $0
	0x01a0 00416 ($GOROOT/src/fmt/print.go:274)	MOVQ	AX, 16(SP)
	0x01a5 00421 ($GOROOT/src/fmt/print.go:274)	MOVQ	$2, 24(SP)
	0x01ae 00430 ($GOROOT/src/fmt/print.go:274)	MOVQ	$2, 32(SP)
	0x01b7 00439 ($GOROOT/src/fmt/print.go:274)	CALL	fmt.Fprintln(SB)
	0x01bc 00444 (test2.go:9)	PCDATA	$0, $2
	0x01bc 00444 (test2.go:9)	LEAQ	""..autotmp_11+160(SP), AX
	0x01c4 00452 (test2.go:9)	PCDATA	$0, $0
	0x01c4 00452 (test2.go:9)	MOVQ	AX, (SP)
	0x01c8 00456 (test2.go:9)	CALL	runtime.mapiternext(SB)
	0x01cd 00461 (test2.go:9)	PCDATA	$0, $2
	0x01cd 00461 (test2.go:9)	MOVQ	""..autotmp_11+160(SP), AX
	0x01d5 00469 (test2.go:9)	TESTQ	AX, AX
	0x01d8 00472 (test2.go:9)	JNE	270
	0x01de 00478 (<unknown line number>)	PCDATA	$0, $0
	0x01de 00478 (<unknown line number>)	PCDATA	$1, $0
	0x01de 00478 (<unknown line number>)	MOVQ	464(SP), BP
	0x01e6 00486 (<unknown line number>)	ADDQ	$472, SP
	0x01ed 00493 (<unknown line number>)	RET
	0x01ee 00494 (<unknown line number>)	NOP
	0x01ee 00494 (test2.go:5)	PCDATA	$1, $-1
	0x01ee 00494 (test2.go:5)	PCDATA	$0, $-1
	0x01ee 00494 (test2.go:5)	CALL	runtime.morestack_noctxt(SB)
	0x01f3 00499 (test2.go:5)	JMP	0
	0x0000 65 48 8b 0c 25 00 00 00 00 48 8d 84 24 a8 fe ff  eH..%....H..$...
	0x0010 ff 48 3b 41 10 0f 86 d3 01 00 00 48 81 ec d8 01  .H;A.......H....
	0x0020 00 00 48 89 ac 24 d0 01 00 00 48 8d ac 24 d0 01  ..H..$....H..$..
	0x0030 00 00 0f 57 c0 0f 11 44 24 70 0f 11 84 24 80 00  ...W...D$p...$..
	0x0040 00 00 0f 11 84 24 90 00 00 00 48 8d bc 24 00 01  .....$....H..$..
	0x0050 00 00 48 8d 7f d0 48 89 6c 24 f0 48 8d 6c 24 f0  ..H...H.l$.H.l$.
	0x0060 e8 00 00 00 00 48 8b 6d 00 48 8d 84 24 00 01 00  .....H.m.H..$...
	0x0070 00 48 89 84 24 80 00 00 00 e8 00 00 00 00 8b 04  .H..$...........
	0x0080 24 89 44 24 7c 48 8d 05 00 00 00 00 48 89 04 24  $.D$|H......H..$
	0x0090 48 8d 4c 24 70 48 89 4c 24 08 48 8d 15 00 00 00  H.L$pH.L$.H.....
	0x00a0 00 48 89 54 24 10 48 c7 44 24 18 05 00 00 00 e8  .H.T$.H.D$......
	0x00b0 00 00 00 00 48 8b 44 24 20 48 c7 00 12 00 00 00  ....H.D$ H......
	0x00c0 48 8d bc 24 a0 00 00 00 0f 57 c0 48 8d 7f e0 48  H..$.....W.H...H
	0x00d0 89 6c 24 f0 48 8d 6c 24 f0 e8 00 00 00 00 48 8b  .l$.H.l$......H.
	0x00e0 6d 00 48 8d 05 00 00 00 00 48 89 04 24 48 8d 44  m.H......H..$H.D
	0x00f0 24 70 48 89 44 24 08 48 8d 84 24 a0 00 00 00 48  $pH.D$.H..$....H
	0x0100 89 44 24 10 e8 00 00 00 00 e9 bf 00 00 00 48 8b  .D$...........H.
	0x0110 8c 24 a8 00 00 00 48 8b 50 08 48 8b 09 48 89 4c  .$....H.P.H..H.L
	0x0120 24 40 48 8b 00 48 89 04 24 48 89 54 24 08 e8 00  $@H..H..$H.T$...
	0x0130 00 00 00 48 8b 44 24 10 48 89 44 24 48 48 8b 4c  ...H.D$.H.D$HH.L
	0x0140 24 40 48 89 0c 24 e8 00 00 00 00 48 8b 44 24 08  $@H..$.....H.D$.
	0x0150 0f 57 c0 0f 11 44 24 50 0f 11 44 24 60 48 8d 0d  .W...D$P..D$`H..
	0x0160 00 00 00 00 48 89 4c 24 50 48 8b 54 24 48 48 89  ....H.L$PH.T$HH.
	0x0170 54 24 58 48 8d 15 00 00 00 00 48 89 54 24 60 48  T$XH......H.T$`H
	0x0180 89 44 24 68 48 8b 05 00 00 00 00 48 8d 1d 00 00  .D$hH......H....
	0x0190 00 00 48 89 1c 24 48 89 44 24 08 48 8d 44 24 50  ..H..$H.D$.H.D$P
	0x01a0 48 89 44 24 10 48 c7 44 24 18 02 00 00 00 48 c7  H.D$.H.D$.....H.
	0x01b0 44 24 20 02 00 00 00 e8 00 00 00 00 48 8d 84 24  D$ .........H..$
	0x01c0 a0 00 00 00 48 89 04 24 e8 00 00 00 00 48 8b 84  ....H..$.....H..
	0x01d0 24 a0 00 00 00 48 85 c0 0f 85 30 ff ff ff 48 8b  $....H....0...H.
	0x01e0 ac 24 d0 01 00 00 48 81 c4 d8 01 00 00 c3 e8 00  .$....H.........
	0x01f0 00 00 00 e9 08 fe ff ff                          ........
	rel 5+4 t=16 TLS+0
	rel 97+4 t=8 runtime.duffzero+239
	rel 122+4 t=8 runtime.fastrand+0
	rel 136+4 t=15 type.map[string]int+0
	rel 157+4 t=15 go.string."qcrao"+0
	rel 176+4 t=8 runtime.mapassign_faststr+0
	rel 218+4 t=8 runtime.duffzero+273
	rel 229+4 t=15 type.map[string]int+0
	rel 261+4 t=8 runtime.mapiterinit+0
	rel 303+4 t=8 runtime.convTstring+0
	rel 327+4 t=8 runtime.convT64+0
	rel 352+4 t=15 type.string+0
	rel 374+4 t=15 type.int+0
	rel 391+4 t=15 os.Stdout+0
	rel 398+4 t=15 go.itab.*os.File,io.Writer+0
	rel 440+4 t=8 fmt.Fprintln+0
	rel 457+4 t=8 runtime.mapiternext+0
	rel 495+4 t=8 runtime.morestack_noctxt+0
type..hash.[2]interface {} STEXT dupok size=110 args=0x18 locals=0x28
	0x0000 00000 (<autogenerated>:1)	TEXT	type..hash.[2]interface {}(SB), DUPOK|ABIInternal, $40-24
	0x0000 00000 (<autogenerated>:1)	MOVQ	(TLS), CX
	0x0009 00009 (<autogenerated>:1)	CMPQ	SP, 16(CX)
	0x000d 00013 (<autogenerated>:1)	JLS	103
	0x000f 00015 (<autogenerated>:1)	SUBQ	$40, SP
	0x0013 00019 (<autogenerated>:1)	MOVQ	BP, 32(SP)
	0x0018 00024 (<autogenerated>:1)	LEAQ	32(SP), BP
	0x001d 00029 (<autogenerated>:1)	FUNCDATA	$0, gclocals·1a65e721a2ccc325b382662e7ffee780(SB)
	0x001d 00029 (<autogenerated>:1)	FUNCDATA	$1, gclocals·69c1753bd5f81501d95132d08af04464(SB)
	0x001d 00029 (<autogenerated>:1)	FUNCDATA	$2, gclocals·ee104e299ed2e4539b82c61c5a4b843d(SB)
	0x001d 00029 (<autogenerated>:1)	PCDATA	$0, $0
	0x001d 00029 (<autogenerated>:1)	PCDATA	$1, $0
	0x001d 00029 (<autogenerated>:1)	XORL	AX, AX
	0x001f 00031 (<autogenerated>:1)	MOVQ	"".h+56(SP), CX
	0x0024 00036 (<autogenerated>:1)	JMP	82
	0x0026 00038 (<autogenerated>:1)	MOVQ	AX, "".i+24(SP)
	0x002b 00043 (<autogenerated>:1)	SHLQ	$4, AX
	0x002f 00047 (<autogenerated>:1)	PCDATA	$0, $1
	0x002f 00047 (<autogenerated>:1)	MOVQ	"".p+48(SP), BX
	0x0034 00052 (<autogenerated>:1)	PCDATA	$0, $2
	0x0034 00052 (<autogenerated>:1)	ADDQ	BX, AX
	0x0037 00055 (<autogenerated>:1)	PCDATA	$0, $0
	0x0037 00055 (<autogenerated>:1)	MOVQ	AX, (SP)
	0x003b 00059 (<autogenerated>:1)	MOVQ	CX, 8(SP)
	0x0040 00064 (<autogenerated>:1)	CALL	runtime.nilinterhash(SB)
	0x0045 00069 (<autogenerated>:1)	MOVQ	16(SP), CX
	0x004a 00074 (<autogenerated>:1)	MOVQ	"".i+24(SP), AX
	0x004f 00079 (<autogenerated>:1)	INCQ	AX
	0x0052 00082 (<autogenerated>:1)	CMPQ	AX, $2
	0x0056 00086 (<autogenerated>:1)	JLT	38
	0x0058 00088 (<autogenerated>:1)	PCDATA	$1, $1
	0x0058 00088 (<autogenerated>:1)	MOVQ	CX, "".~r2+64(SP)
	0x005d 00093 (<autogenerated>:1)	MOVQ	32(SP), BP
	0x0062 00098 (<autogenerated>:1)	ADDQ	$40, SP
	0x0066 00102 (<autogenerated>:1)	RET
	0x0067 00103 (<autogenerated>:1)	NOP
	0x0067 00103 (<autogenerated>:1)	PCDATA	$1, $-1
	0x0067 00103 (<autogenerated>:1)	PCDATA	$0, $-1
	0x0067 00103 (<autogenerated>:1)	CALL	runtime.morestack_noctxt(SB)
	0x006c 00108 (<autogenerated>:1)	JMP	0
	0x0000 65 48 8b 0c 25 00 00 00 00 48 3b 61 10 76 58 48  eH..%....H;a.vXH
	0x0010 83 ec 28 48 89 6c 24 20 48 8d 6c 24 20 31 c0 48  ..(H.l$ H.l$ 1.H
	0x0020 8b 4c 24 38 eb 2c 48 89 44 24 18 48 c1 e0 04 48  .L$8.,H.D$.H...H
	0x0030 8b 5c 24 30 48 01 d8 48 89 04 24 48 89 4c 24 08  .\$0H..H..$H.L$.
	0x0040 e8 00 00 00 00 48 8b 4c 24 10 48 8b 44 24 18 48  .....H.L$.H.D$.H
	0x0050 ff c0 48 83 f8 02 7c ce 48 89 4c 24 40 48 8b 6c  ..H...|.H.L$@H.l
	0x0060 24 20 48 83 c4 28 c3 e8 00 00 00 00 eb 92        $ H..(........
	rel 5+4 t=16 TLS+0
	rel 65+4 t=8 runtime.nilinterhash+0
	rel 104+4 t=8 runtime.morestack_noctxt+0
type..eq.[2]interface {} STEXT dupok size=179 args=0x18 locals=0x30
	0x0000 00000 (<autogenerated>:1)	TEXT	type..eq.[2]interface {}(SB), DUPOK|ABIInternal, $48-24
	0x0000 00000 (<autogenerated>:1)	MOVQ	(TLS), CX
	0x0009 00009 (<autogenerated>:1)	CMPQ	SP, 16(CX)
	0x000d 00013 (<autogenerated>:1)	JLS	169
	0x0013 00019 (<autogenerated>:1)	SUBQ	$48, SP
	0x0017 00023 (<autogenerated>:1)	MOVQ	BP, 40(SP)
	0x001c 00028 (<autogenerated>:1)	LEAQ	40(SP), BP
	0x0021 00033 (<autogenerated>:1)	FUNCDATA	$0, gclocals·dc9b0298814590ca3ffc3a889546fc8b(SB)
	0x0021 00033 (<autogenerated>:1)	FUNCDATA	$1, gclocals·69c1753bd5f81501d95132d08af04464(SB)
	0x0021 00033 (<autogenerated>:1)	FUNCDATA	$2, gclocals·a1bdf42ea3370bf425f59e11a41daee2(SB)
	0x0021 00033 (<autogenerated>:1)	PCDATA	$0, $1
	0x0021 00033 (<autogenerated>:1)	PCDATA	$1, $0
	0x0021 00033 (<autogenerated>:1)	MOVQ	"".p+56(SP), AX
	0x0026 00038 (<autogenerated>:1)	PCDATA	$0, $2
	0x0026 00038 (<autogenerated>:1)	MOVQ	"".q+64(SP), CX
	0x002b 00043 (<autogenerated>:1)	XORL	DX, DX
	0x002d 00045 (<autogenerated>:1)	JMP	72
	0x002f 00047 (<autogenerated>:1)	PCDATA	$0, $0
	0x002f 00047 (<autogenerated>:1)	MOVQ	""..autotmp_8+32(SP), BX
	0x0034 00052 (<autogenerated>:1)	LEAQ	1(BX), DX
	0x0038 00056 (<autogenerated>:1)	PCDATA	$0, $3
	0x0038 00056 (<autogenerated>:1)	MOVQ	"".p+56(SP), BX
	0x003d 00061 (<autogenerated>:1)	PCDATA	$0, $4
	0x003d 00061 (<autogenerated>:1)	MOVQ	"".q+64(SP), SI
	0x0042 00066 (<autogenerated>:1)	PCDATA	$0, $5
	0x0042 00066 (<autogenerated>:1)	MOVQ	BX, AX
	0x0045 00069 (<autogenerated>:1)	PCDATA	$0, $2
	0x0045 00069 (<autogenerated>:1)	MOVQ	SI, CX
	0x0048 00072 (<autogenerated>:1)	CMPQ	DX, $2
	0x004c 00076 (<autogenerated>:1)	JGE	154
	0x004e 00078 (<autogenerated>:1)	MOVQ	DX, BX
	0x0051 00081 (<autogenerated>:1)	SHLQ	$4, DX
	0x0055 00085 (<autogenerated>:1)	PCDATA	$0, $6
	0x0055 00085 (<autogenerated>:1)	MOVQ	8(DX)(AX*1), SI
	0x005a 00090 (<autogenerated>:1)	PCDATA	$0, $7
	0x005a 00090 (<autogenerated>:1)	MOVQ	(DX)(AX*1), DI
	0x005e 00094 (<autogenerated>:1)	PCDATA	$0, $8
	0x005e 00094 (<autogenerated>:1)	MOVQ	8(DX)(CX*1), R8
	0x0063 00099 (<autogenerated>:1)	PCDATA	$0, $9
	0x0063 00099 (<autogenerated>:1)	MOVQ	(DX)(CX*1), DX
	0x0067 00103 (<autogenerated>:1)	CMPQ	DI, DX
	0x006a 00106 (<autogenerated>:1)	JNE	139
	0x006c 00108 (<autogenerated>:1)	MOVQ	BX, ""..autotmp_8+32(SP)
	0x0071 00113 (<autogenerated>:1)	MOVQ	DI, (SP)
	0x0075 00117 (<autogenerated>:1)	PCDATA	$0, $10
	0x0075 00117 (<autogenerated>:1)	MOVQ	SI, 8(SP)
	0x007a 00122 (<autogenerated>:1)	PCDATA	$0, $0
	0x007a 00122 (<autogenerated>:1)	MOVQ	R8, 16(SP)
	0x007f 00127 (<autogenerated>:1)	CALL	runtime.efaceeq(SB)
	0x0084 00132 (<autogenerated>:1)	CMPB	24(SP), $0
	0x0089 00137 (<autogenerated>:1)	JNE	47
	0x008b 00139 (<autogenerated>:1)	PCDATA	$1, $1
	0x008b 00139 (<autogenerated>:1)	MOVB	$0, "".~r2+72(SP)
	0x0090 00144 (<autogenerated>:1)	MOVQ	40(SP), BP
	0x0095 00149 (<autogenerated>:1)	ADDQ	$48, SP
	0x0099 00153 (<autogenerated>:1)	RET
	0x009a 00154 (<autogenerated>:1)	MOVB	$1, "".~r2+72(SP)
	0x009f 00159 (<autogenerated>:1)	MOVQ	40(SP), BP
	0x00a4 00164 (<autogenerated>:1)	ADDQ	$48, SP
	0x00a8 00168 (<autogenerated>:1)	RET
	0x00a9 00169 (<autogenerated>:1)	NOP
	0x00a9 00169 (<autogenerated>:1)	PCDATA	$1, $-1
	0x00a9 00169 (<autogenerated>:1)	PCDATA	$0, $-1
	0x00a9 00169 (<autogenerated>:1)	CALL	runtime.morestack_noctxt(SB)
	0x00ae 00174 (<autogenerated>:1)	JMP	0
	0x0000 65 48 8b 0c 25 00 00 00 00 48 3b 61 10 0f 86 96  eH..%....H;a....
	0x0010 00 00 00 48 83 ec 30 48 89 6c 24 28 48 8d 6c 24  ...H..0H.l$(H.l$
	0x0020 28 48 8b 44 24 38 48 8b 4c 24 40 31 d2 eb 19 48  (H.D$8H.L$@1...H
	0x0030 8b 5c 24 20 48 8d 53 01 48 8b 5c 24 38 48 8b 74  .\$ H.S.H.\$8H.t
	0x0040 24 40 48 89 d8 48 89 f1 48 83 fa 02 7d 4c 48 89  $@H..H..H...}LH.
	0x0050 d3 48 c1 e2 04 48 8b 74 02 08 48 8b 3c 02 4c 8b  .H...H.t..H.<.L.
	0x0060 44 0a 08 48 8b 14 0a 48 39 d7 75 1f 48 89 5c 24  D..H...H9.u.H.\$
	0x0070 20 48 89 3c 24 48 89 74 24 08 4c 89 44 24 10 e8   H.<$H.t$.L.D$..
	0x0080 00 00 00 00 80 7c 24 18 00 75 a4 c6 44 24 48 00  .....|$..u..D$H.
	0x0090 48 8b 6c 24 28 48 83 c4 30 c3 c6 44 24 48 01 48  H.l$(H..0..D$H.H
	0x00a0 8b 6c 24 28 48 83 c4 30 c3 e8 00 00 00 00 e9 4d  .l$(H..0.......M
	0x00b0 ff ff ff                                         ...
	rel 5+4 t=16 TLS+0
	rel 128+4 t=8 runtime.efaceeq+0
	rel 170+4 t=8 runtime.morestack_noctxt+0
go.cuinfo.packagename. SDWARFINFO dupok size=0
	0x0000 6d 61 69 6e                                      main
go.info.fmt.Println$abstract SDWARFINFO dupok size=42
	0x0000 04 66 6d 74 2e 50 72 69 6e 74 6c 6e 00 01 01 11  .fmt.Println....
	0x0010 61 00 00 00 00 00 00 11 6e 00 01 00 00 00 00 11  a.......n.......
	0x0020 65 72 72 00 01 00 00 00 00 00                    err.......
	rel 19+4 t=28 go.info.[]interface {}+0
	rel 27+4 t=28 go.info.int+0
	rel 37+4 t=28 go.info.error+0
go.loc.os.(*File).close SDWARFLOC dupok size=0
go.info.os.(*File).close SDWARFINFO dupok size=55
	0x0000 03 6f 73 2e 28 2a 46 69 6c 65 29 2e 63 6c 6f 73  .os.(*File).clos
	0x0010 65 00 00 00 00 00 00 00 00 00 00 00 00 00 00 00  e...............
	0x0020 00 00 01 9c 00 00 00 00 01 0f 7e 72 30 00 01 ec  ..........~r0...
	0x0030 01 00 00 00 00 00 00                             .......
	rel 18+8 t=1 os.(*File).close+0
	rel 26+8 t=1 os.(*File).close+26
	rel 36+4 t=29 gofile..<autogenerated>+0
	rel 49+4 t=28 go.info.error+0
go.range.os.(*File).close SDWARFRANGE dupok size=0
go.isstmt.os.(*File).close SDWARFMISC dupok size=0
	0x0000 04 05 01 10 02 05 00                             .......
go.string."qcrao" SRODATA dupok size=5
	0x0000 71 63 72 61 6f                                   qcrao
go.loc."".main SDWARFLOC size=119
	0x0000 00 00 00 00 00 00 00 00 00 00 00 00 00 00 00 00  ................
	0x0010 01 00 52 00 00 00 00 00 00 00 00 00 00 00 00 00  ..R.............
	0x0020 00 00 00 03 00 91 e0 7c 00 00 00 00 00 00 00 00  .......|........
	0x0030 00 00 00 00 00 00 00 00 00 00 00 00 00 00 00 00  ................
	0x0040 00 00 00 00 00 00 00 00 05 00 93 08 51 93 08 00  ............Q...
	0x0050 00 00 00 00 00 00 00 00 00 00 00 00 00 00 00 06  ................
	0x0060 00 50 93 08 51 93 08 00 00 00 00 00 00 00 00 00  .P..Q...........
	0x0070 00 00 00 00 00 00 00                             .......
	rel 0+8 t=50 "".main+285
	rel 8+8 t=50 "".main+307
	rel 19+8 t=50 "".main+307
	rel 27+8 t=50 "".main+478
	rel 56+8 t=50 "".main+282
	rel 64+8 t=50 "".main+293
	rel 79+8 t=50 "".main+293
	rel 87+8 t=50 "".main+307
go.info."".main SDWARFINFO size=98
	0x0000 03 22 22 2e 6d 61 69 6e 00 00 00 00 00 00 00 00  ."".main........
	0x0010 00 00 00 00 00 00 00 00 00 01 9c 00 00 00 00 01  ................
	0x0020 14 00 00 00 00 0b 61 67 65 00 09 00 00 00 00 00  ......age.......
	0x0030 00 00 00 0b 6e 61 6d 65 00 09 00 00 00 00 00 00  ....name........
	0x0040 00 00 00 06 00 00 00 00 00 00 00 00 00 00 00 00  ................
	0x0050 00 00 00 00 00 00 00 00 00 00 00 00 0a 00 00 00  ................
	0x0060 00 00                                            ..
	rel 9+8 t=1 "".main+0
	rel 17+8 t=1 "".main+504
	rel 27+4 t=29 gofile../Users/ytlou/Desktop/golang/golang_study/study/test2.go+0
	rel 33+4 t=28 go.range."".main+0
	rel 43+4 t=28 go.info.int+0
	rel 47+4 t=28 go.loc."".main+0
	rel 58+4 t=28 go.info.string+0
	rel 62+4 t=28 go.loc."".main+56
	rel 68+4 t=28 go.info.fmt.Println$abstract+0
	rel 72+8 t=1 "".main+388
	rel 80+8 t=1 "".main+444
	rel 88+4 t=29 gofile../Users/ytlou/Desktop/golang/golang_study/study/test2.go+0
go.range."".main SDWARFRANGE size=48
	0x0000 00 00 00 00 00 00 00 00 00 00 00 00 00 00 00 00  ................
	0x0010 00 00 00 00 00 00 00 00 00 00 00 00 00 00 00 00  ................
	0x0020 00 00 00 00 00 00 00 00 00 00 00 00 00 00 00 00  ................
	rel 0+8 t=50 "".main+192
	rel 8+8 t=50 "".main+388
	rel 16+8 t=50 "".main+444
	rel 24+8 t=50 "".main+478
go.isstmt."".main SDWARFMISC size=0
	0x0000 04 1b 04 17 03 03 01 44 02 05 01 07 02 07 01 23  .......D.......#
	0x0010 02 05 01 0c 02 08 01 3c 02 05 01 1c 02 04 01 05  .......<........
	0x0020 02 05 01 13 02 05 01 39 02 07 01 2c 02 0d 01 04  .......9...,....
	0x0030 02 0d 01 19 02 0a 00                             .......
runtime.gcbits.01 SRODATA dupok size=1
	0x0000 01                                               .
type..namedata.*[]uint8- SRODATA dupok size=11
	0x0000 00 00 08 2a 5b 5d 75 69 6e 74 38                 ...*[]uint8
type.*[]uint8 SRODATA dupok size=56
	0x0000 08 00 00 00 00 00 00 00 08 00 00 00 00 00 00 00  ................
	0x0010 a5 8e d0 69 00 08 08 36 00 00 00 00 00 00 00 00  ...i...6........
	0x0020 00 00 00 00 00 00 00 00 00 00 00 00 00 00 00 00  ................
	0x0030 00 00 00 00 00 00 00 00                          ........
	rel 24+8 t=1 runtime.algarray+80
	rel 32+8 t=1 runtime.gcbits.01+0
	rel 40+4 t=5 type..namedata.*[]uint8-+0
	rel 48+8 t=1 type.[]uint8+0
type.[]uint8 SRODATA dupok size=56
	0x0000 18 00 00 00 00 00 00 00 08 00 00 00 00 00 00 00  ................
	0x0010 df 7e 2e 38 02 08 08 17 00 00 00 00 00 00 00 00  .~.8............
	0x0020 00 00 00 00 00 00 00 00 00 00 00 00 00 00 00 00  ................
	0x0030 00 00 00 00 00 00 00 00                          ........
	rel 24+8 t=1 runtime.algarray+0
	rel 32+8 t=1 runtime.gcbits.01+0
	rel 40+4 t=5 type..namedata.*[]uint8-+0
	rel 44+4 t=6 type.*[]uint8+0
	rel 48+8 t=1 type.uint8+0
type..namedata.*[8]uint8- SRODATA dupok size=12
	0x0000 00 00 09 2a 5b 38 5d 75 69 6e 74 38              ...*[8]uint8
type.*[8]uint8 SRODATA dupok size=56
	0x0000 08 00 00 00 00 00 00 00 08 00 00 00 00 00 00 00  ................
	0x0010 a9 89 a5 7a 00 08 08 36 00 00 00 00 00 00 00 00  ...z...6........
	0x0020 00 00 00 00 00 00 00 00 00 00 00 00 00 00 00 00  ................
	0x0030 00 00 00 00 00 00 00 00                          ........
	rel 24+8 t=1 runtime.algarray+80
	rel 32+8 t=1 runtime.gcbits.01+0
	rel 40+4 t=5 type..namedata.*[8]uint8-+0
	rel 48+8 t=1 type.[8]uint8+0
runtime.gcbits. SRODATA dupok size=0
type.[8]uint8 SRODATA dupok size=72
	0x0000 08 00 00 00 00 00 00 00 00 00 00 00 00 00 00 00  ................
	0x0010 3e f9 30 b4 02 01 01 11 00 00 00 00 00 00 00 00  >.0.............
	0x0020 00 00 00 00 00 00 00 00 00 00 00 00 00 00 00 00  ................
	0x0030 00 00 00 00 00 00 00 00 00 00 00 00 00 00 00 00  ................
	0x0040 08 00 00 00 00 00 00 00                          ........
	rel 24+8 t=1 runtime.algarray+80
	rel 32+8 t=1 runtime.gcbits.+0
	rel 40+4 t=5 type..namedata.*[8]uint8-+0
	rel 44+4 t=6 type.*[8]uint8+0
	rel 48+8 t=1 type.uint8+0
	rel 56+8 t=1 type.[]uint8+0
type..namedata.*[]string- SRODATA dupok size=12
	0x0000 00 00 09 2a 5b 5d 73 74 72 69 6e 67              ...*[]string
type.*[]string SRODATA dupok size=56
	0x0000 08 00 00 00 00 00 00 00 08 00 00 00 00 00 00 00  ................
	0x0010 92 22 76 84 00 08 08 36 00 00 00 00 00 00 00 00  ."v....6........
	0x0020 00 00 00 00 00 00 00 00 00 00 00 00 00 00 00 00  ................
	0x0030 00 00 00 00 00 00 00 00                          ........
	rel 24+8 t=1 runtime.algarray+80
	rel 32+8 t=1 runtime.gcbits.01+0
	rel 40+4 t=5 type..namedata.*[]string-+0
	rel 48+8 t=1 type.[]string+0
type.[]string SRODATA dupok size=56
	0x0000 18 00 00 00 00 00 00 00 08 00 00 00 00 00 00 00  ................
	0x0010 d3 a8 f3 0a 02 08 08 17 00 00 00 00 00 00 00 00  ................
	0x0020 00 00 00 00 00 00 00 00 00 00 00 00 00 00 00 00  ................
	0x0030 00 00 00 00 00 00 00 00                          ........
	rel 24+8 t=1 runtime.algarray+0
	rel 32+8 t=1 runtime.gcbits.01+0
	rel 40+4 t=5 type..namedata.*[]string-+0
	rel 44+4 t=6 type.*[]string+0
	rel 48+8 t=1 type.string+0
type..namedata.*[8]string- SRODATA dupok size=13
	0x0000 00 00 0a 2a 5b 38 5d 73 74 72 69 6e 67           ...*[8]string
type.*[8]string SRODATA dupok size=56
	0x0000 08 00 00 00 00 00 00 00 08 00 00 00 00 00 00 00  ................
	0x0010 ad 94 14 6f 00 08 08 36 00 00 00 00 00 00 00 00  ...o...6........
	0x0020 00 00 00 00 00 00 00 00 00 00 00 00 00 00 00 00  ................
	0x0030 00 00 00 00 00 00 00 00                          ........
	rel 24+8 t=1 runtime.algarray+80
	rel 32+8 t=1 runtime.gcbits.01+0
	rel 40+4 t=5 type..namedata.*[8]string-+0
	rel 48+8 t=1 type.noalg.[8]string+0
runtime.gcbits.5555 SRODATA dupok size=2
	0x0000 55 55                                            UU
type.noalg.[8]string SRODATA dupok size=72
	0x0000 80 00 00 00 00 00 00 00 78 00 00 00 00 00 00 00  ........x.......
	0x0010 55 53 8c 3e 02 08 08 11 00 00 00 00 00 00 00 00  US.>............
	0x0020 00 00 00 00 00 00 00 00 00 00 00 00 00 00 00 00  ................
	0x0030 00 00 00 00 00 00 00 00 00 00 00 00 00 00 00 00  ................
	0x0040 08 00 00 00 00 00 00 00                          ........
	rel 24+8 t=1 runtime.algarray+0
	rel 32+8 t=1 runtime.gcbits.5555+0
	rel 40+4 t=5 type..namedata.*[8]string-+0
	rel 44+4 t=6 type.*[8]string+0
	rel 48+8 t=1 type.string+0
	rel 56+8 t=1 type.[]string+0
type..namedata.*[]int- SRODATA dupok size=9
	0x0000 00 00 06 2a 5b 5d 69 6e 74                       ...*[]int
type.*[]int SRODATA dupok size=56
	0x0000 08 00 00 00 00 00 00 00 08 00 00 00 00 00 00 00  ................
	0x0010 1b 31 52 88 00 08 08 36 00 00 00 00 00 00 00 00  .1R....6........
	0x0020 00 00 00 00 00 00 00 00 00 00 00 00 00 00 00 00  ................
	0x0030 00 00 00 00 00 00 00 00                          ........
	rel 24+8 t=1 runtime.algarray+80
	rel 32+8 t=1 runtime.gcbits.01+0
	rel 40+4 t=5 type..namedata.*[]int-+0
	rel 48+8 t=1 type.[]int+0
type.[]int SRODATA dupok size=56
	0x0000 18 00 00 00 00 00 00 00 08 00 00 00 00 00 00 00  ................
	0x0010 8e 66 f9 1b 02 08 08 17 00 00 00 00 00 00 00 00  .f..............
	0x0020 00 00 00 00 00 00 00 00 00 00 00 00 00 00 00 00  ................
	0x0030 00 00 00 00 00 00 00 00                          ........
	rel 24+8 t=1 runtime.algarray+0
	rel 32+8 t=1 runtime.gcbits.01+0
	rel 40+4 t=5 type..namedata.*[]int-+0
	rel 44+4 t=6 type.*[]int+0
	rel 48+8 t=1 type.int+0
type..namedata.*[8]int- SRODATA dupok size=10
	0x0000 00 00 07 2a 5b 38 5d 69 6e 74                    ...*[8]int
type.*[8]int SRODATA dupok size=56
	0x0000 08 00 00 00 00 00 00 00 08 00 00 00 00 00 00 00  ................
	0x0010 f3 3f a8 3b 00 08 08 36 00 00 00 00 00 00 00 00  .?.;...6........
	0x0020 00 00 00 00 00 00 00 00 00 00 00 00 00 00 00 00  ................
	0x0030 00 00 00 00 00 00 00 00                          ........
	rel 24+8 t=1 runtime.algarray+80
	rel 32+8 t=1 runtime.gcbits.01+0
	rel 40+4 t=5 type..namedata.*[8]int-+0
	rel 48+8 t=1 type.noalg.[8]int+0
type.noalg.[8]int SRODATA dupok size=72
	0x0000 40 00 00 00 00 00 00 00 00 00 00 00 00 00 00 00  @...............
	0x0010 96 99 d5 05 02 08 08 11 00 00 00 00 00 00 00 00  ................
	0x0020 00 00 00 00 00 00 00 00 00 00 00 00 00 00 00 00  ................
	0x0030 00 00 00 00 00 00 00 00 00 00 00 00 00 00 00 00  ................
	0x0040 08 00 00 00 00 00 00 00                          ........
	rel 24+8 t=1 runtime.algarray+0
	rel 32+8 t=1 runtime.gcbits.+0
	rel 40+4 t=5 type..namedata.*[8]int-+0
	rel 44+4 t=6 type.*[8]int+0
	rel 48+8 t=1 type.int+0
	rel 56+8 t=1 type.[]int+0
runtime.gcbits.aaaa0002 SRODATA dupok size=4
	0x0000 aa aa 00 02                                      ....
type..namedata.*map.bucket[string]int- SRODATA dupok size=25
	0x0000 00 00 16 2a 6d 61 70 2e 62 75 63 6b 65 74 5b 73  ...*map.bucket[s
	0x0010 74 72 69 6e 67 5d 69 6e 74                       tring]int
type..importpath.. SRODATA dupok size=3
	0x0000 00 00 00                                         ...
type..namedata.topbits- SRODATA dupok size=10
	0x0000 00 00 07 74 6f 70 62 69 74 73                    ...topbits
type..namedata.keys- SRODATA dupok size=7
	0x0000 00 00 04 6b 65 79 73                             ...keys
type..namedata.elems- SRODATA dupok size=8
	0x0000 00 00 05 65 6c 65 6d 73                          ...elems
type..namedata.overflow- SRODATA dupok size=11
	0x0000 00 00 08 6f 76 65 72 66 6c 6f 77                 ...overflow
type.noalg.map.bucket[string]int SRODATA dupok size=176
	0x0000 d0 00 00 00 00 00 00 00 d0 00 00 00 00 00 00 00  ................
	0x0010 5d 68 63 71 02 08 08 19 00 00 00 00 00 00 00 00  ]hcq............
	0x0020 00 00 00 00 00 00 00 00 00 00 00 00 00 00 00 00  ................
	0x0030 00 00 00 00 00 00 00 00 00 00 00 00 00 00 00 00  ................
	0x0040 04 00 00 00 00 00 00 00 04 00 00 00 00 00 00 00  ................
	0x0050 00 00 00 00 00 00 00 00 00 00 00 00 00 00 00 00  ................
	0x0060 00 00 00 00 00 00 00 00 00 00 00 00 00 00 00 00  ................
	0x0070 00 00 00 00 00 00 00 00 10 00 00 00 00 00 00 00  ................
	0x0080 00 00 00 00 00 00 00 00 00 00 00 00 00 00 00 00  ................
	0x0090 10 01 00 00 00 00 00 00 00 00 00 00 00 00 00 00  ................
	0x00a0 00 00 00 00 00 00 00 00 90 01 00 00 00 00 00 00  ................
	rel 24+8 t=1 runtime.algarray+0
	rel 32+8 t=1 runtime.gcbits.aaaa0002+0
	rel 40+4 t=5 type..namedata.*map.bucket[string]int-+0
	rel 44+4 t=6 type.*map.bucket[string]int+0
	rel 48+8 t=1 type..importpath..+0
	rel 56+8 t=1 type.noalg.map.bucket[string]int+80
	rel 80+8 t=1 type..namedata.topbits-+0
	rel 88+8 t=1 type.[8]uint8+0
	rel 104+8 t=1 type..namedata.keys-+0
	rel 112+8 t=1 type.noalg.[8]string+0
	rel 128+8 t=1 type..namedata.elems-+0
	rel 136+8 t=1 type.noalg.[8]int+0
	rel 152+8 t=1 type..namedata.overflow-+0
	rel 160+8 t=1 type.*map.bucket[string]int+0
type.*map.bucket[string]int SRODATA dupok size=56
	0x0000 08 00 00 00 00 00 00 00 08 00 00 00 00 00 00 00  ................
	0x0010 c9 be cc 9c 00 08 08 36 00 00 00 00 00 00 00 00  .......6........
	0x0020 00 00 00 00 00 00 00 00 00 00 00 00 00 00 00 00  ................
	0x0030 00 00 00 00 00 00 00 00                          ........
	rel 24+8 t=1 runtime.algarray+80
	rel 32+8 t=1 runtime.gcbits.01+0
	rel 40+4 t=5 type..namedata.*map.bucket[string]int-+0
	rel 48+8 t=1 type.noalg.map.bucket[string]int+0
runtime.gcbits.2c SRODATA dupok size=1
	0x0000 2c                                               ,
type..namedata.*map.hdr[string]int- SRODATA dupok size=22
	0x0000 00 00 13 2a 6d 61 70 2e 68 64 72 5b 73 74 72 69  ...*map.hdr[stri
	0x0010 6e 67 5d 69 6e 74                                ng]int
type..namedata.count- SRODATA dupok size=8
	0x0000 00 00 05 63 6f 75 6e 74                          ...count
type..namedata.flags- SRODATA dupok size=8
	0x0000 00 00 05 66 6c 61 67 73                          ...flags
type..namedata.B. SRODATA dupok size=4
	0x0000 01 00 01 42                                      ...B
type..namedata.noverflow- SRODATA dupok size=12
	0x0000 00 00 09 6e 6f 76 65 72 66 6c 6f 77              ...noverflow
type..namedata.hash0- SRODATA dupok size=8
	0x0000 00 00 05 68 61 73 68 30                          ...hash0
type..namedata.buckets- SRODATA dupok size=10
	0x0000 00 00 07 62 75 63 6b 65 74 73                    ...buckets
type..namedata.oldbuckets- SRODATA dupok size=13
	0x0000 00 00 0a 6f 6c 64 62 75 63 6b 65 74 73           ...oldbuckets
type..namedata.nevacuate- SRODATA dupok size=12
	0x0000 00 00 09 6e 65 76 61 63 75 61 74 65              ...nevacuate
type..namedata.extra- SRODATA dupok size=8
	0x0000 00 00 05 65 78 74 72 61                          ...extra
type.noalg.map.hdr[string]int SRODATA dupok size=296
	0x0000 30 00 00 00 00 00 00 00 30 00 00 00 00 00 00 00  0.......0.......
	0x0010 35 46 99 12 02 08 08 19 00 00 00 00 00 00 00 00  5F..............
	0x0020 00 00 00 00 00 00 00 00 00 00 00 00 00 00 00 00  ................
	0x0030 00 00 00 00 00 00 00 00 00 00 00 00 00 00 00 00  ................
	0x0040 09 00 00 00 00 00 00 00 09 00 00 00 00 00 00 00  ................
	0x0050 00 00 00 00 00 00 00 00 00 00 00 00 00 00 00 00  ................
	0x0060 00 00 00 00 00 00 00 00 00 00 00 00 00 00 00 00  ................
	0x0070 00 00 00 00 00 00 00 00 10 00 00 00 00 00 00 00  ................
	0x0080 00 00 00 00 00 00 00 00 00 00 00 00 00 00 00 00  ................
	0x0090 12 00 00 00 00 00 00 00 00 00 00 00 00 00 00 00  ................
	0x00a0 00 00 00 00 00 00 00 00 14 00 00 00 00 00 00 00  ................
	0x00b0 00 00 00 00 00 00 00 00 00 00 00 00 00 00 00 00  ................
	0x00c0 18 00 00 00 00 00 00 00 00 00 00 00 00 00 00 00  ................
	0x00d0 00 00 00 00 00 00 00 00 20 00 00 00 00 00 00 00  ........ .......
	0x00e0 00 00 00 00 00 00 00 00 00 00 00 00 00 00 00 00  ................
	0x00f0 30 00 00 00 00 00 00 00 00 00 00 00 00 00 00 00  0...............
	0x0100 00 00 00 00 00 00 00 00 40 00 00 00 00 00 00 00  ........@.......
	0x0110 00 00 00 00 00 00 00 00 00 00 00 00 00 00 00 00  ................
	0x0120 50 00 00 00 00 00 00 00                          P.......
	rel 24+8 t=1 runtime.algarray+0
	rel 32+8 t=1 runtime.gcbits.2c+0
	rel 40+4 t=5 type..namedata.*map.hdr[string]int-+0
	rel 44+4 t=6 type.*map.hdr[string]int+0
	rel 48+8 t=1 type..importpath..+0
	rel 56+8 t=1 type.noalg.map.hdr[string]int+80
	rel 80+8 t=1 type..namedata.count-+0
	rel 88+8 t=1 type.int+0
	rel 104+8 t=1 type..namedata.flags-+0
	rel 112+8 t=1 type.uint8+0
	rel 128+8 t=1 type..namedata.B.+0
	rel 136+8 t=1 type.uint8+0
	rel 152+8 t=1 type..namedata.noverflow-+0
	rel 160+8 t=1 type.uint16+0
	rel 176+8 t=1 type..namedata.hash0-+0
	rel 184+8 t=1 type.uint32+0
	rel 200+8 t=1 type..namedata.buckets-+0
	rel 208+8 t=1 type.*map.bucket[string]int+0
	rel 224+8 t=1 type..namedata.oldbuckets-+0
	rel 232+8 t=1 type.*map.bucket[string]int+0
	rel 248+8 t=1 type..namedata.nevacuate-+0
	rel 256+8 t=1 type.uintptr+0
	rel 272+8 t=1 type..namedata.extra-+0
	rel 280+8 t=1 type.unsafe.Pointer+0
type.*map.hdr[string]int SRODATA dupok size=56
	0x0000 08 00 00 00 00 00 00 00 08 00 00 00 00 00 00 00  ................
	0x0010 9b ec 34 c9 00 08 08 36 00 00 00 00 00 00 00 00  ..4....6........
	0x0020 00 00 00 00 00 00 00 00 00 00 00 00 00 00 00 00  ................
	0x0030 00 00 00 00 00 00 00 00                          ........
	rel 24+8 t=1 runtime.algarray+80
	rel 32+8 t=1 runtime.gcbits.01+0
	rel 40+4 t=5 type..namedata.*map.hdr[string]int-+0
	rel 48+8 t=1 type.noalg.map.hdr[string]int+0
type..namedata.*map.iter[string]int- SRODATA dupok size=23
	0x0000 00 00 14 2a 6d 61 70 2e 69 74 65 72 5b 73 74 72  ...*map.iter[str
	0x0010 69 6e 67 5d 69 6e 74                             ing]int
type.*map.iter[string]int SRODATA dupok size=56
	0x0000 08 00 00 00 00 00 00 00 08 00 00 00 00 00 00 00  ................
	0x0010 cb 46 a4 2e 00 08 08 36 00 00 00 00 00 00 00 00  .F.....6........
	0x0020 00 00 00 00 00 00 00 00 00 00 00 00 00 00 00 00  ................
	0x0030 00 00 00 00 00 00 00 00                          ........
	rel 24+8 t=1 runtime.algarray+80
	rel 32+8 t=1 runtime.gcbits.01+0
	rel 40+4 t=5 type..namedata.*map.iter[string]int-+0
	rel 48+8 t=1 type.noalg.map.iter[string]int+0
runtime.gcbits.ff SRODATA dupok size=1
	0x0000 ff                                               .
type..namedata.key- SRODATA dupok size=6
	0x0000 00 00 03 6b 65 79                                ...key
type..namedata.elem- SRODATA dupok size=7
	0x0000 00 00 04 65 6c 65 6d                             ...elem
type..namedata.t- SRODATA dupok size=4
	0x0000 00 00 01 74                                      ...t
type..namedata.h- SRODATA dupok size=4
	0x0000 00 00 01 68                                      ...h
type..namedata.bptr- SRODATA dupok size=7
	0x0000 00 00 04 62 70 74 72                             ...bptr
type..namedata.oldoverflow- SRODATA dupok size=14
	0x0000 00 00 0b 6f 6c 64 6f 76 65 72 66 6c 6f 77        ...oldoverflow
type..namedata.startBucket- SRODATA dupok size=14
	0x0000 00 00 0b 73 74 61 72 74 42 75 63 6b 65 74        ...startBucket
type..namedata.offset- SRODATA dupok size=9
	0x0000 00 00 06 6f 66 66 73 65 74                       ...offset
type..namedata.wrapped- SRODATA dupok size=10
	0x0000 00 00 07 77 72 61 70 70 65 64                    ...wrapped
type..namedata.i- SRODATA dupok size=4
	0x0000 00 00 01 69                                      ...i
type..namedata.bucket- SRODATA dupok size=9
	0x0000 00 00 06 62 75 63 6b 65 74                       ...bucket
type..namedata.checkBucket- SRODATA dupok size=14
	0x0000 00 00 0b 63 68 65 63 6b 42 75 63 6b 65 74        ...checkBucket
type.noalg.map.iter[string]int SRODATA dupok size=440
	0x0000 60 00 00 00 00 00 00 00 40 00 00 00 00 00 00 00  `.......@.......
	0x0010 a2 3e b6 6b 02 08 08 19 00 00 00 00 00 00 00 00  .>.k............
	0x0020 00 00 00 00 00 00 00 00 00 00 00 00 00 00 00 00  ................
	0x0030 00 00 00 00 00 00 00 00 00 00 00 00 00 00 00 00  ................
	0x0040 0f 00 00 00 00 00 00 00 0f 00 00 00 00 00 00 00  ................
	0x0050 00 00 00 00 00 00 00 00 00 00 00 00 00 00 00 00  ................
	0x0060 00 00 00 00 00 00 00 00 00 00 00 00 00 00 00 00  ................
	0x0070 00 00 00 00 00 00 00 00 10 00 00 00 00 00 00 00  ................
	0x0080 00 00 00 00 00 00 00 00 00 00 00 00 00 00 00 00  ................
	0x0090 20 00 00 00 00 00 00 00 00 00 00 00 00 00 00 00   ...............
	0x00a0 00 00 00 00 00 00 00 00 30 00 00 00 00 00 00 00  ........0.......
	0x00b0 00 00 00 00 00 00 00 00 00 00 00 00 00 00 00 00  ................
	0x00c0 40 00 00 00 00 00 00 00 00 00 00 00 00 00 00 00  @...............
	0x00d0 00 00 00 00 00 00 00 00 50 00 00 00 00 00 00 00  ........P.......
	0x00e0 00 00 00 00 00 00 00 00 00 00 00 00 00 00 00 00  ................
	0x00f0 60 00 00 00 00 00 00 00 00 00 00 00 00 00 00 00  `...............
	0x0100 00 00 00 00 00 00 00 00 70 00 00 00 00 00 00 00  ........p.......
	0x0110 00 00 00 00 00 00 00 00 00 00 00 00 00 00 00 00  ................
	0x0120 80 00 00 00 00 00 00 00 00 00 00 00 00 00 00 00  ................
	0x0130 00 00 00 00 00 00 00 00 90 00 00 00 00 00 00 00  ................
	0x0140 00 00 00 00 00 00 00 00 00 00 00 00 00 00 00 00  ................
	0x0150 92 00 00 00 00 00 00 00 00 00 00 00 00 00 00 00  ................
	0x0160 00 00 00 00 00 00 00 00 94 00 00 00 00 00 00 00  ................
	0x0170 00 00 00 00 00 00 00 00 00 00 00 00 00 00 00 00  ................
	0x0180 96 00 00 00 00 00 00 00 00 00 00 00 00 00 00 00  ................
	0x0190 00 00 00 00 00 00 00 00 a0 00 00 00 00 00 00 00  ................
	0x01a0 00 00 00 00 00 00 00 00 00 00 00 00 00 00 00 00  ................
	0x01b0 b0 00 00 00 00 00 00 00                          ........
	rel 24+8 t=1 runtime.algarray+0
	rel 32+8 t=1 runtime.gcbits.ff+0
	rel 40+4 t=5 type..namedata.*map.iter[string]int-+0
	rel 44+4 t=6 type.*map.iter[string]int+0
	rel 48+8 t=1 type..importpath..+0
	rel 56+8 t=1 type.noalg.map.iter[string]int+80
	rel 80+8 t=1 type..namedata.key-+0
	rel 88+8 t=1 type.*string+0
	rel 104+8 t=1 type..namedata.elem-+0
	rel 112+8 t=1 type.*int+0
	rel 128+8 t=1 type..namedata.t-+0
	rel 136+8 t=1 type.unsafe.Pointer+0
	rel 152+8 t=1 type..namedata.h-+0
	rel 160+8 t=1 type.*map.hdr[string]int+0
	rel 176+8 t=1 type..namedata.buckets-+0
	rel 184+8 t=1 type.*map.bucket[string]int+0
	rel 200+8 t=1 type..namedata.bptr-+0
	rel 208+8 t=1 type.*map.bucket[string]int+0
	rel 224+8 t=1 type..namedata.overflow-+0
	rel 232+8 t=1 type.unsafe.Pointer+0
	rel 248+8 t=1 type..namedata.oldoverflow-+0
	rel 256+8 t=1 type.unsafe.Pointer+0
	rel 272+8 t=1 type..namedata.startBucket-+0
	rel 280+8 t=1 type.uintptr+0
	rel 296+8 t=1 type..namedata.offset-+0
	rel 304+8 t=1 type.uint8+0
	rel 320+8 t=1 type..namedata.wrapped-+0
	rel 328+8 t=1 type.bool+0
	rel 344+8 t=1 type..namedata.B.+0
	rel 352+8 t=1 type.uint8+0
	rel 368+8 t=1 type..namedata.i-+0
	rel 376+8 t=1 type.uint8+0
	rel 392+8 t=1 type..namedata.bucket-+0
	rel 400+8 t=1 type.uintptr+0
	rel 416+8 t=1 type..namedata.checkBucket-+0
	rel 424+8 t=1 type.uintptr+0
type..namedata.*interface {}- SRODATA dupok size=16
	0x0000 00 00 0d 2a 69 6e 74 65 72 66 61 63 65 20 7b 7d  ...*interface {}
type.*interface {} SRODATA dupok size=56
	0x0000 08 00 00 00 00 00 00 00 08 00 00 00 00 00 00 00  ................
	0x0010 4f 0f 96 9d 00 08 08 36 00 00 00 00 00 00 00 00  O......6........
	0x0020 00 00 00 00 00 00 00 00 00 00 00 00 00 00 00 00  ................
	0x0030 00 00 00 00 00 00 00 00                          ........
	rel 24+8 t=1 runtime.algarray+80
	rel 32+8 t=1 runtime.gcbits.01+0
	rel 40+4 t=5 type..namedata.*interface {}-+0
	rel 48+8 t=1 type.interface {}+0
runtime.gcbits.02 SRODATA dupok size=1
	0x0000 02                                               .
type.interface {} SRODATA dupok size=80
	0x0000 10 00 00 00 00 00 00 00 10 00 00 00 00 00 00 00  ................
	0x0010 e7 57 a0 18 02 08 08 14 00 00 00 00 00 00 00 00  .W..............
	0x0020 00 00 00 00 00 00 00 00 00 00 00 00 00 00 00 00  ................
	0x0030 00 00 00 00 00 00 00 00 00 00 00 00 00 00 00 00  ................
	0x0040 00 00 00 00 00 00 00 00 00 00 00 00 00 00 00 00  ................
	rel 24+8 t=1 runtime.algarray+144
	rel 32+8 t=1 runtime.gcbits.02+0
	rel 40+4 t=5 type..namedata.*interface {}-+0
	rel 44+4 t=6 type.*interface {}+0
	rel 56+8 t=1 type.interface {}+80
type..namedata.*[]interface {}- SRODATA dupok size=18
	0x0000 00 00 0f 2a 5b 5d 69 6e 74 65 72 66 61 63 65 20  ...*[]interface 
	0x0010 7b 7d                                            {}
type.*[]interface {} SRODATA dupok size=56
	0x0000 08 00 00 00 00 00 00 00 08 00 00 00 00 00 00 00  ................
	0x0010 f3 04 9a e7 00 08 08 36 00 00 00 00 00 00 00 00  .......6........
	0x0020 00 00 00 00 00 00 00 00 00 00 00 00 00 00 00 00  ................
	0x0030 00 00 00 00 00 00 00 00                          ........
	rel 24+8 t=1 runtime.algarray+80
	rel 32+8 t=1 runtime.gcbits.01+0
	rel 40+4 t=5 type..namedata.*[]interface {}-+0
	rel 48+8 t=1 type.[]interface {}+0
type.[]interface {} SRODATA dupok size=56
	0x0000 18 00 00 00 00 00 00 00 08 00 00 00 00 00 00 00  ................
	0x0010 70 93 ea 2f 02 08 08 17 00 00 00 00 00 00 00 00  p../............
	0x0020 00 00 00 00 00 00 00 00 00 00 00 00 00 00 00 00  ................
	0x0030 00 00 00 00 00 00 00 00                          ........
	rel 24+8 t=1 runtime.algarray+0
	rel 32+8 t=1 runtime.gcbits.01+0
	rel 40+4 t=5 type..namedata.*[]interface {}-+0
	rel 44+4 t=6 type.*[]interface {}+0
	rel 48+8 t=1 type.interface {}+0
go.loc.type..hash.[2]interface {} SDWARFLOC dupok size=126
	0x0000 00 00 00 00 00 00 00 00 00 00 00 00 00 00 00 00  ................
	0x0010 02 00 91 68 00 00 00 00 00 00 00 00 00 00 00 00  ...h............
	0x0020 00 00 00 00 01 00 50 00 00 00 00 00 00 00 00 00  ......P.........
	0x0030 00 00 00 00 00 00 00 00 00 00 00 00 00 00 00 00  ................
	0x0040 00 00 00 00 00 00 00 01 00 9c 00 00 00 00 00 00  ................
	0x0050 00 00 00 00 00 00 00 00 00 00 00 00 00 00 00 00  ................
	0x0060 00 00 00 00 00 00 00 00 00 00 02 00 91 08 00 00  ................
	0x0070 00 00 00 00 00 00 00 00 00 00 00 00 00 00        ..............
	rel 0+8 t=50 type..hash.[2]interface {}+43
	rel 8+8 t=50 type..hash.[2]interface {}+82
	rel 20+8 t=50 type..hash.[2]interface {}+82
	rel 28+8 t=50 type..hash.[2]interface {}+110
	rel 55+8 t=50 type..hash.[2]interface {}+0
	rel 63+8 t=50 type..hash.[2]interface {}+110
	rel 90+8 t=50 type..hash.[2]interface {}+0
	rel 98+8 t=50 type..hash.[2]interface {}+110
go.info.type..hash.[2]interface {} SDWARFINFO dupok size=102
	0x0000 03 74 79 70 65 2e 2e 68 61 73 68 2e 5b 32 5d 69  .type..hash.[2]i
	0x0010 6e 74 65 72 66 61 63 65 20 7b 7d 00 00 00 00 00  nterface {}.....
	0x0020 00 00 00 00 00 00 00 00 00 00 00 00 01 9c 00 00  ................
	0x0030 00 00 01 0b 69 00 01 00 00 00 00 00 00 00 00 10  ....i...........
	0x0040 70 00 00 01 00 00 00 00 00 00 00 00 10 68 00 00  p............h..
	0x0050 01 00 00 00 00 00 00 00 00 0f 7e 72 32 00 01 01  ..........~r2...
	0x0060 00 00 00 00 00 00                                ......
	rel 28+8 t=1 type..hash.[2]interface {}+0
	rel 36+8 t=1 type..hash.[2]interface {}+110
	rel 46+4 t=29 gofile..<autogenerated>+0
	rel 55+4 t=28 go.info.int+0
	rel 59+4 t=28 go.loc.type..hash.[2]interface {}+0
	rel 68+4 t=28 go.info.*[2]interface {}+0
	rel 72+4 t=28 go.loc.type..hash.[2]interface {}+55
	rel 81+4 t=28 go.info.uintptr+0
	rel 85+4 t=28 go.loc.type..hash.[2]interface {}+90
	rel 96+4 t=28 go.info.uintptr+0
go.range.type..hash.[2]interface {} SDWARFRANGE dupok size=0
go.isstmt.type..hash.[2]interface {} SDWARFMISC dupok size=0
	0x0000 04 0f 04 0e 03 02 01 21 02 05 01 0d 02 04 01 02  .......!........
	0x0010 02 05 01 0a 02 07 00                             .......
go.loc.type..eq.[2]interface {} SDWARFLOC dupok size=106
	0x0000 00 00 00 00 00 00 00 00 00 00 00 00 00 00 00 00  ................
	0x0010 01 00 51 00 00 00 00 00 00 00 00 00 00 00 00 00  ..Q.............
	0x0020 00 00 00 00 00 00 00 00 00 00 00 00 00 00 00 00  ................
	0x0030 00 00 00 01 00 9c 00 00 00 00 00 00 00 00 00 00  ................
	0x0040 00 00 00 00 00 00 00 00 00 00 00 00 00 00 00 00  ................
	0x0050 00 00 00 00 00 00 02 00 91 08 00 00 00 00 00 00  ................
	0x0060 00 00 00 00 00 00 00 00 00 00                    ..........
	rel 0+8 t=50 type..eq.[2]interface {}+72
	rel 8+8 t=50 type..eq.[2]interface {}+85
	rel 35+8 t=50 type..eq.[2]interface {}+0
	rel 43+8 t=50 type..eq.[2]interface {}+179
	rel 70+8 t=50 type..eq.[2]interface {}+0
	rel 78+8 t=50 type..eq.[2]interface {}+179
go.info.type..eq.[2]interface {} SDWARFINFO dupok size=100
	0x0000 03 74 79 70 65 2e 2e 65 71 2e 5b 32 5d 69 6e 74  .type..eq.[2]int
	0x0010 65 72 66 61 63 65 20 7b 7d 00 00 00 00 00 00 00  erface {}.......
	0x0020 00 00 00 00 00 00 00 00 00 00 01 9c 00 00 00 00  ................
	0x0030 01 0b 69 00 01 00 00 00 00 00 00 00 00 10 70 00  ..i...........p.
	0x0040 00 01 00 00 00 00 00 00 00 00 10 71 00 00 01 00  ...........q....
	0x0050 00 00 00 00 00 00 00 0f 7e 72 32 00 01 01 00 00  ........~r2.....
	0x0060 00 00 00 00                                      ....
	rel 26+8 t=1 type..eq.[2]interface {}+0
	rel 34+8 t=1 type..eq.[2]interface {}+179
	rel 44+4 t=29 gofile..<autogenerated>+0
	rel 53+4 t=28 go.info.int+0
	rel 57+4 t=28 go.loc.type..eq.[2]interface {}+0
	rel 66+4 t=28 go.info.*[2]interface {}+0
	rel 70+4 t=28 go.loc.type..eq.[2]interface {}+35
	rel 79+4 t=28 go.info.*[2]interface {}+0
	rel 83+4 t=28 go.loc.type..eq.[2]interface {}+70
	rel 94+4 t=28 go.info.bool+0
go.range.type..eq.[2]interface {} SDWARFRANGE dupok size=0
go.isstmt.type..eq.[2]interface {} SDWARFMISC dupok size=0
	0x0000 04 13 04 0e 03 05 01 22 02 04 01 33 02 05 01 07  ......."...3....
	0x0010 02 05 01 0a 02 05 01 0a 02 0a 00                 ...........
type..hashfunc.[2]interface {} SRODATA dupok size=8
	0x0000 00 00 00 00 00 00 00 00                          ........
	rel 0+8 t=1 type..hash.[2]interface {}+0
type..eqfunc.[2]interface {} SRODATA dupok size=8
	0x0000 00 00 00 00 00 00 00 00                          ........
	rel 0+8 t=1 type..eq.[2]interface {}+0
type..alg.[2]interface {} SRODATA dupok size=16
	0x0000 00 00 00 00 00 00 00 00 00 00 00 00 00 00 00 00  ................
	rel 0+8 t=1 type..hashfunc.[2]interface {}+0
	rel 8+8 t=1 type..eqfunc.[2]interface {}+0
type..namedata.*[2]interface {}- SRODATA dupok size=19
	0x0000 00 00 10 2a 5b 32 5d 69 6e 74 65 72 66 61 63 65  ...*[2]interface
	0x0010 20 7b 7d                                          {}
type.*[2]interface {} SRODATA dupok size=56
	0x0000 08 00 00 00 00 00 00 00 08 00 00 00 00 00 00 00  ................
	0x0010 be 73 2d 71 00 08 08 36 00 00 00 00 00 00 00 00  .s-q...6........
	0x0020 00 00 00 00 00 00 00 00 00 00 00 00 00 00 00 00  ................
	0x0030 00 00 00 00 00 00 00 00                          ........
	rel 24+8 t=1 runtime.algarray+80
	rel 32+8 t=1 runtime.gcbits.01+0
	rel 40+4 t=5 type..namedata.*[2]interface {}-+0
	rel 48+8 t=1 type.[2]interface {}+0
runtime.gcbits.0a SRODATA dupok size=1
	0x0000 0a                                               .
type.[2]interface {} SRODATA dupok size=72
	0x0000 20 00 00 00 00 00 00 00 20 00 00 00 00 00 00 00   ....... .......
	0x0010 2c 59 a4 f1 02 08 08 11 00 00 00 00 00 00 00 00  ,Y..............
	0x0020 00 00 00 00 00 00 00 00 00 00 00 00 00 00 00 00  ................
	0x0030 00 00 00 00 00 00 00 00 00 00 00 00 00 00 00 00  ................
	0x0040 02 00 00 00 00 00 00 00                          ........
	rel 24+8 t=1 type..alg.[2]interface {}+0
	rel 32+8 t=1 runtime.gcbits.0a+0
	rel 40+4 t=5 type..namedata.*[2]interface {}-+0
	rel 44+4 t=6 type.*[2]interface {}+0
	rel 48+8 t=1 type.interface {}+0
	rel 56+8 t=1 type.[]interface {}+0
""..inittask SNOPTRDATA size=32
	0x0000 00 00 00 00 00 00 00 00 01 00 00 00 00 00 00 00  ................
	0x0010 00 00 00 00 00 00 00 00 00 00 00 00 00 00 00 00  ................
	rel 24+8 t=1 fmt..inittask+0
type..namedata.*map[string]int- SRODATA dupok size=18
	0x0000 00 00 0f 2a 6d 61 70 5b 73 74 72 69 6e 67 5d 69  ...*map[string]i
	0x0010 6e 74                                            nt
type.*map[string]int SRODATA dupok size=56
	0x0000 08 00 00 00 00 00 00 00 08 00 00 00 00 00 00 00  ................
	0x0010 8e 5e 06 04 00 08 08 36 00 00 00 00 00 00 00 00  .^.....6........
	0x0020 00 00 00 00 00 00 00 00 00 00 00 00 00 00 00 00  ................
	0x0030 00 00 00 00 00 00 00 00                          ........
	rel 24+8 t=1 runtime.algarray+80
	rel 32+8 t=1 runtime.gcbits.01+0
	rel 40+4 t=5 type..namedata.*map[string]int-+0
	rel 48+8 t=1 type.map[string]int+0
type.map[string]int SRODATA dupok size=80
	0x0000 08 00 00 00 00 00 00 00 08 00 00 00 00 00 00 00  ................
	0x0010 e5 db c8 4a 02 08 08 35 00 00 00 00 00 00 00 00  ...J...5........
	0x0020 00 00 00 00 00 00 00 00 00 00 00 00 00 00 00 00  ................
	0x0030 00 00 00 00 00 00 00 00 00 00 00 00 00 00 00 00  ................
	0x0040 00 00 00 00 00 00 00 00 10 08 d0 00 0c 00 00 00  ................
	rel 24+8 t=1 runtime.algarray+0
	rel 32+8 t=1 runtime.gcbits.01+0
	rel 40+4 t=5 type..namedata.*map[string]int-+0
	rel 44+4 t=6 type.*map[string]int+0
	rel 48+8 t=1 type.string+0
	rel 56+8 t=1 type.int+0
	rel 64+8 t=1 type.noalg.map.bucket[string]int+0
go.itab.*os.File,io.Writer SRODATA dupok size=32
	0x0000 00 00 00 00 00 00 00 00 00 00 00 00 00 00 00 00  ................
	0x0010 44 b5 f3 33 00 00 00 00 00 00 00 00 00 00 00 00  D..3............
	rel 0+8 t=1 type.io.Writer+0
	rel 8+8 t=1 type.*os.File+0
	rel 24+8 t=1 os.(*File).Write+0
go.itablink.*os.File,io.Writer SRODATA dupok size=8
	0x0000 00 00 00 00 00 00 00 00                          ........
	rel 0+8 t=1 go.itab.*os.File,io.Writer+0
type..importpath.fmt. SRODATA dupok size=6
	0x0000 00 00 03 66 6d 74                                ...fmt
gclocals·e6397a44f8e1b6e77d0f200b4fba5269 SRODATA dupok size=10
	0x0000 02 00 00 00 03 00 00 00 01 00                    ..........
gclocals·69c1753bd5f81501d95132d08af04464 SRODATA dupok size=8
	0x0000 02 00 00 00 00 00 00 00                          ........
gclocals·9fb7f0986f647f17cb53dda1484e0f7a SRODATA dupok size=10
	0x0000 02 00 00 00 01 00 00 00 00 01                    ..........
gclocals·0ce64bbc7cfa5ef04d41c861de81a3d7 SRODATA dupok size=8
	0x0000 08 00 00 00 00 00 00 00                          ........
gclocals·35bdce1891330e0afa9c706d10572e21 SRODATA dupok size=64
	0x0000 08 00 00 00 31 00 00 00 00 00 00 00 00 00 00 80  ....1...........
	0x0010 05 00 00 00 00 00 80 05 00 55 55 00 01 80 fd 07  .........UU.....
	0x0020 00 00 00 00 00 f8 07 00 00 00 00 01 f8 07 00 00  ................
	0x0030 00 00 15 f8 07 00 00 00 00 14 f8 07 00 00 00 00  ................
gclocals·75dac9a2768be6c74521bdfea8217eaf SRODATA dupok size=16
	0x0000 08 00 00 00 07 00 00 00 00 40 01 02 04 03 05 09  .........@......
"".main.stkobj SRODATA dupok size=72
	0x0000 04 00 00 00 00 00 00 00 80 fe ff ff ff ff ff ff  ................
	0x0010 00 00 00 00 00 00 00 00 a0 fe ff ff ff ff ff ff  ................
	0x0020 00 00 00 00 00 00 00 00 d0 fe ff ff ff ff ff ff  ................
	0x0030 00 00 00 00 00 00 00 00 30 ff ff ff ff ff ff ff  ........0.......
	0x0040 00 00 00 00 00 00 00 00                          ........
	rel 16+8 t=1 type.[2]interface {}+0
	rel 32+8 t=1 type.noalg.map.hdr[string]int+0
	rel 48+8 t=1 type.noalg.map.iter[string]int+0
	rel 64+8 t=1 type.noalg.map.bucket[string]int+0
gclocals·1a65e721a2ccc325b382662e7ffee780 SRODATA dupok size=10
	0x0000 02 00 00 00 01 00 00 00 01 00                    ..........
gclocals·ee104e299ed2e4539b82c61c5a4b843d SRODATA dupok size=11
	0x0000 03 00 00 00 04 00 00 00 00 08 01                 ...........
gclocals·dc9b0298814590ca3ffc3a889546fc8b SRODATA dupok size=10
	0x0000 02 00 00 00 02 00 00 00 03 00                    ..........
gclocals·a1bdf42ea3370bf425f59e11a41daee2 SRODATA dupok size=19
	0x0000 0b 00 00 00 08 00 00 00 00 01 03 08 28 21 23 22  ............(!#"
	0x0010 a2 a0 80                                         ...
